target datalayout = "e-m:e-p270:32:32-p271:32:32-p272:64:64-i64:64-i128:128-f80:128-n8:16:32:64-S128"
target triple = "x86_64-pc-linux-gnu"

%struct.AVChannelLayout = type { i32, i32, %union.anon.1, ptr }
%union.anon.1 = type { i64 }
%struct.AVRational = type { i32, i32 }
%struct.AVFrame = type { [8 x ptr], [8 x i32], ptr, i32, i32, i32, i32, i32, %struct.AVRational, i64, i64, %struct.AVRational, i32, ptr, i32, i32, [8 x ptr], ptr, i32, ptr, i32, i32, i32, i32, i32, i32, i32, i64, ptr, i32, ptr, ptr, i64, i64, i64, i64, ptr, %struct.AVChannelLayout, i64 }
%struct.__va_list_tag = type { i32, i32, ptr, ptr }

@avpriv_vga16_font = external constant [4096 x i8], align 16
@avpriv_cga_font = external constant [2048 x i8], align 16
@.str.77 = private unnamed_addr constant [4 x i8] zeroinitializer, align 1

; Function Attrs: nounwind uwtable
define internal void @drawtext(ptr noundef %0, i32 noundef %1, i32 noundef %2, i32 noundef %3, ptr noundef %4, ptr noundef %5, ...) #1 {
  %7 = alloca ptr, align 8
  %8 = alloca i32, align 4
  %9 = alloca i32, align 4
  %10 = alloca i32, align 4
  %11 = alloca ptr, align 8
  %12 = alloca ptr, align 8
  %13 = alloca i32, align 4
  %14 = alloca [128 x i8], align 16
  %15 = alloca ptr, align 8
  %16 = alloca i32, align 4
  %17 = alloca [1 x %struct.__va_list_tag], align 16
  %18 = alloca i32, align 4
  %19 = alloca i32, align 4
  %20 = alloca i32, align 4
  %21 = alloca ptr, align 8
  store ptr %0, ptr %7, align 8, !tbaa !80
  store i32 %1, ptr %8, align 4, !tbaa !51
  store i32 %2, ptr %9, align 4, !tbaa !51
  store i32 %3, ptr %10, align 4, !tbaa !51
  store ptr %4, ptr %11, align 8, !tbaa !50
  store ptr %5, ptr %12, align 8, !tbaa !50
  call void @llvm.lifetime.start.p0(i64 4, ptr %13) #14
  call void @llvm.lifetime.start.p0(i64 128, ptr %14) #14
  call void @llvm.memset.p0.i64(ptr align 16 %14, i8 0, i64 128, i1 false)
  call void @llvm.lifetime.start.p0(i64 8, ptr %15) #14
  call void @llvm.lifetime.start.p0(i64 4, ptr %16) #14
  call void @llvm.lifetime.start.p0(i64 24, ptr %17) #14
  %22 = load i32, ptr %10, align 4, !tbaa !51
  %23 = icmp eq i32 %22, 1
  br i1 %23, label %24, label %25

24:                                               ; preds = %6
  store ptr @avpriv_vga16_font, ptr %15, align 8, !tbaa !50
  store i32 16, ptr %16, align 4, !tbaa !51
  br label %31

25:                                               ; preds = %6
  %26 = load i32, ptr %10, align 4, !tbaa !51
  %27 = icmp eq i32 %26, 0
  br i1 %27, label %28, label %29

28:                                               ; preds = %25
  store ptr @avpriv_cga_font, ptr %15, align 8, !tbaa !50
  store i32 8, ptr %16, align 4, !tbaa !51
  br label %30

29:                                               ; preds = %25
  store i32 1, ptr %18, align 4
  br label %118

30:                                               ; preds = %28
  br label %31

31:                                               ; preds = %30, %24
  %32 = getelementptr inbounds [1 x %struct.__va_list_tag], ptr %17, i64 0, i64 0
  call void @llvm.va_start.p0(ptr %32)
  %33 = getelementptr inbounds [128 x i8], ptr %14, i64 0, i64 0
  %34 = load ptr, ptr %12, align 8, !tbaa !50
  %35 = getelementptr inbounds [1 x %struct.__va_list_tag], ptr %17, i64 0, i64 0
  %36 = call i32 @vsnprintf(ptr noundef %33, i64 noundef 128, ptr noundef %34, ptr noundef %35) #14
  %37 = getelementptr inbounds [1 x %struct.__va_list_tag], ptr %17, i64 0, i64 0
  call void @llvm.va_end.p0(ptr %37)
  store i32 0, ptr %13, align 4, !tbaa !51
  br label %38

38:                                               ; preds = %114, %31
  %39 = load i32, ptr %13, align 4, !tbaa !51
  %40 = sext i32 %39 to i64
  %41 = getelementptr inbounds [128 x i8], ptr %14, i64 0, i64 %40
  %42 = load i8, ptr %41, align 1, !tbaa !52
  %43 = icmp ne i8 %42, 0
  br i1 %43, label %44, label %117

44:                                               ; preds = %38
  call void @llvm.lifetime.start.p0(i64 4, ptr %19) #14
  call void @llvm.lifetime.start.p0(i64 4, ptr %20) #14
  call void @llvm.lifetime.start.p0(i64 8, ptr %21) #14
  %45 = load ptr, ptr %7, align 8, !tbaa !80
  %46 = getelementptr inbounds nuw %struct.AVFrame, ptr %45, i32 0, i32 0
  %47 = getelementptr inbounds [8 x ptr], ptr %46, i64 0, i64 0
  %48 = load ptr, ptr %47, align 8, !tbaa !50
  %49 = load i32, ptr %9, align 4, !tbaa !51
  %50 = load ptr, ptr %7, align 8, !tbaa !80
  %51 = getelementptr inbounds nuw %struct.AVFrame, ptr %50, i32 0, i32 1
  %52 = getelementptr inbounds [8 x i32], ptr %51, i64 0, i64 0
  %53 = load i32, ptr %52, align 8, !tbaa !51
  %54 = mul nsw i32 %49, %53
  %55 = sext i32 %54 to i64
  %56 = getelementptr inbounds i8, ptr %48, i64 %55
  %57 = load i32, ptr %8, align 4, !tbaa !51
  %58 = load i32, ptr %13, align 4, !tbaa !51
  %59 = mul nsw i32 %58, 8
  %60 = add nsw i32 %57, %59
  %61 = mul nsw i32 %60, 3
  %62 = sext i32 %61 to i64
  %63 = getelementptr inbounds i8, ptr %56, i64 %62
  store ptr %63, ptr %21, align 8, !tbaa !50
  store i32 0, ptr %19, align 4, !tbaa !51
  br label %64

64:                                               ; preds = %110, %44
  %65 = load i32, ptr %19, align 4, !tbaa !51
  %66 = load i32, ptr %16, align 4, !tbaa !51
  %67 = icmp slt i32 %65, %66
  br i1 %67, label %68, label %113

68:                                               ; preds = %64
  store i32 128, ptr %20, align 4, !tbaa !51
  br label %69

69:                                               ; preds = %98, %68
  %70 = load i32, ptr %20, align 4, !tbaa !51
  %71 = icmp ne i32 %70, 0
  br i1 %71, label %72, label %101

72:                                               ; preds = %69
  %73 = load ptr, ptr %15, align 8, !tbaa !50
  %74 = load i32, ptr %13, align 4, !tbaa !51
  %75 = sext i32 %74 to i64
  %76 = getelementptr inbounds [128 x i8], ptr %14, i64 0, i64 %75
  %77 = load i8, ptr %76, align 1, !tbaa !52
  %78 = sext i8 %77 to i32
  %79 = load i32, ptr %16, align 4, !tbaa !51
  %80 = mul nsw i32 %78, %79
  %81 = load i32, ptr %19, align 4, !tbaa !51
  %82 = add nsw i32 %80, %81
  %83 = sext i32 %82 to i64
  %84 = getelementptr inbounds i8, ptr %73, i64 %83
  %85 = load i8, ptr %84, align 1, !tbaa !52
  %86 = zext i8 %85 to i32
  %87 = load i32, ptr %20, align 4, !tbaa !51
  %88 = and i32 %86, %87
  %89 = icmp ne i32 %88, 0
  br i1 %89, label %90, label %93

90:                                               ; preds = %72
  %91 = load ptr, ptr %21, align 8, !tbaa !50
  %92 = load ptr, ptr %11, align 8, !tbaa !50
  call void @llvm.memcpy.p0.p0.i64(ptr align 1 %91, ptr align 1 %92, i64 3, i1 false)
  br label %95

93:                                               ; preds = %72
  %94 = load ptr, ptr %21, align 8, !tbaa !50
  call void @llvm.memcpy.p0.p0.i64(ptr align 1 %94, ptr align 1 @.str.77, i64 3, i1 false)
  br label %95

95:                                               ; preds = %93, %90
  %96 = load ptr, ptr %21, align 8, !tbaa !50
  %97 = getelementptr inbounds i8, ptr %96, i64 3
  store ptr %97, ptr %21, align 8, !tbaa !50
  br label %98

98:                                               ; preds = %95
  %99 = load i32, ptr %20, align 4, !tbaa !51
  %100 = ashr i32 %99, 1
  store i32 %100, ptr %20, align 4, !tbaa !51
  br label %69, !llvm.loop !147

101:                                              ; preds = %69
  %102 = load ptr, ptr %7, align 8, !tbaa !80
  %103 = getelementptr inbounds nuw %struct.AVFrame, ptr %102, i32 0, i32 1
  %104 = getelementptr inbounds [8 x i32], ptr %103, i64 0, i64 0
  %105 = load i32, ptr %104, align 8, !tbaa !51
  %106 = sub nsw i32 %105, 24
  %107 = load ptr, ptr %21, align 8, !tbaa !50
  %108 = sext i32 %106 to i64
  %109 = getelementptr inbounds i8, ptr %107, i64 %108
  store ptr %109, ptr %21, align 8, !tbaa !50
  br label %110

110:                                              ; preds = %101
  %111 = load i32, ptr %19, align 4, !tbaa !51
  %112 = add nsw i32 %111, 1
  store i32 %112, ptr %19, align 4, !tbaa !51
  br label %64, !llvm.loop !148

113:                                              ; preds = %64
  call void @llvm.lifetime.end.p0(i64 8, ptr %21) #14
  call void @llvm.lifetime.end.p0(i64 4, ptr %20) #14
  call void @llvm.lifetime.end.p0(i64 4, ptr %19) #14
  br label %114

114:                                              ; preds = %113
  %115 = load i32, ptr %13, align 4, !tbaa !51
  %116 = add nsw i32 %115, 1
  store i32 %116, ptr %13, align 4, !tbaa !51
  br label %38, !llvm.loop !149

117:                                              ; preds = %38
  store i32 0, ptr %18, align 4
  br label %118

118:                                              ; preds = %117, %29
  call void @llvm.lifetime.end.p0(i64 24, ptr %17) #14
  call void @llvm.lifetime.end.p0(i64 4, ptr %16) #14
  call void @llvm.lifetime.end.p0(i64 8, ptr %15) #14
  call void @llvm.lifetime.end.p0(i64 128, ptr %14) #14
  call void @llvm.lifetime.end.p0(i64 4, ptr %13) #14
  %119 = load i32, ptr %18, align 4
  switch i32 %119, label %121 [
    i32 0, label %120
    i32 1, label %120
  ]

120:                                              ; preds = %118, %118
  ret void

121:                                              ; preds = %118
  unreachable
}