; Function Attrs: nofree nounwind uwtable
define internal void @drawtext(ptr noundef readonly captures(none) %0, i32 noundef range(i32 8, 17) %1, i32 noundef %2, i32 noundef range(i32 0, 2) %3, ptr noundef readonly captures(none) %4, ptr noundef readonly captures(none) %5, ...) unnamed_addr #8 {
  %7 = alloca [128 x i8], align 16
  %8 = alloca [1 x %struct.__va_list_tag], align 16
  call void @llvm.lifetime.start.p0(i64 128, ptr nonnull %7) #13
  call void @llvm.memset.p0.i64(ptr noundef nonnull align 16 dereferenceable(128) %7, i8 0, i64 128, i1 false)
  call void @llvm.lifetime.start.p0(i64 24, ptr nonnull %8) #13
  %.not = icmp eq i32 %3, 0
  %.028 = select i1 %.not, ptr @avpriv_cga_font, ptr @avpriv_vga16_font
  %.027 = select i1 %.not, i32 8, i32 16
  call void @llvm.va_start.p0(ptr nonnull %8)
  %9 = call i32 @vsnprintf(ptr noundef nonnull %7, i64 noundef 128, ptr noundef %5, ptr noundef nonnull %8) #13
  call void @llvm.va_end.p0(ptr nonnull %8)
  %10 = load i8, ptr %7, align 16, !tbaa !168
  %.not3138 = icmp eq i8 %10, 0
  br i1 %.not3138, label %._crit_edge, label %.lr.ph

.lr.ph:                                           ; preds = %6
  %11 = getelementptr inbounds nuw i8, ptr %0, i64 64
  %12 = select i1 %.not, i32 3, i32 4
  %13 = zext nneg i32 %1 to i64
  %.pre = load i32, ptr %11, align 8, !tbaa !40
  br label %14

14:                                               ; preds = %.lr.ph, %46
  %15 = phi i32 [ %.pre, %.lr.ph ], [ %41, %46 ]
  %indvars.iv = phi i64 [ 0, %.lr.ph ], [ %indvars.iv.next, %46 ]
  %16 = phi ptr [ %7, %.lr.ph ], [ %47, %46 ]
  %17 = load ptr, ptr %0, align 8, !tbaa !38
  %18 = mul nsw i32 %15, %2
  %19 = sext i32 %18 to i64
  %20 = getelementptr inbounds i8, ptr %17, i64 %19
  %21 = shl nsw i64 %indvars.iv, 3
  %22 = add nuw nsw i64 %21, %13
  %23 = mul nuw nsw i64 %22, 3
  %24 = getelementptr inbounds nuw i8, ptr %20, i64 %23
  br label %.preheader

.preheader:                                       ; preds = %14, %40
  %.037 = phi ptr [ %24, %14 ], [ %44, %40 ]
  %.02636 = phi i32 [ 0, %14 ], [ %45, %40 ]
  br label %25

25:                                               ; preds = %.preheader, %37
  %.135 = phi ptr [ %.037, %.preheader ], [ %38, %37 ]
  %.02534 = phi i32 [ 128, %.preheader ], [ %39, %37 ]
  %26 = load i8, ptr %16, align 1, !tbaa !168
  %27 = sext i8 %26 to i32
  %28 = shl nsw i32 %27, %12
  %29 = add nsw i32 %28, %.02636
  %30 = sext i32 %29 to i64
  %31 = getelementptr inbounds i8, ptr %.028, i64 %30
  %32 = load i8, ptr %31, align 1, !tbaa !168
  %33 = zext i8 %32 to i32
  %34 = and i32 %.02534, %33
  %.not33 = icmp eq i32 %34, 0
  br i1 %.not33, label %36, label %35

35:                                               ; preds = %25
  call void @llvm.memcpy.p0.p0.i64(ptr noundef nonnull align 1 dereferenceable(3) %.135, ptr noundef nonnull align 1 dereferenceable(3) %4, i64 3, i1 false)
  br label %37

36:                                               ; preds = %25
  call void @llvm.memset.p0.i64(ptr noundef nonnull align 1 dereferenceable(3) %.135, i8 0, i64 3, i1 false)
  br label %37

37:                                               ; preds = %36, %35
  %38 = getelementptr inbounds nuw i8, ptr %.135, i64 3
  %39 = lshr i32 %.02534, 1
  %.not32 = icmp samesign ult i32 %.02534, 2
  br i1 %.not32, label %40, label %25, !llvm.loop !169

40:                                               ; preds = %37
  %41 = load i32, ptr %11, align 8, !tbaa !40
  %42 = sext i32 %41 to i64
  %43 = getelementptr i8, ptr %38, i64 %42
  %44 = getelementptr i8, ptr %43, i64 -24
  %45 = add nuw nsw i32 %.02636, 1
  %exitcond.not = icmp eq i32 %45, %.027
  br i1 %exitcond.not, label %46, label %.preheader, !llvm.loop !170

46:                                               ; preds = %40
  %indvars.iv.next = add nuw nsw i64 %indvars.iv, 1
  %47 = getelementptr inbounds nuw [128 x i8], ptr %7, i64 0, i64 %indvars.iv.next
  %48 = load i8, ptr %47, align 1, !tbaa !168
  %.not31 = icmp eq i8 %48, 0
  br i1 %.not31, label %._crit_edge, label %14, !llvm.loop !171

._crit_edge:                                      ; preds = %46, %6
  call void @llvm.lifetime.end.p0(i64 24, ptr nonnull %8) #13
  call void @llvm.lifetime.end.p0(i64 128, ptr nonnull %7) #13
  ret void
}